target datalayout = "e-m:e-p270:32:32-p271:32:32-p272:64:64-i64:64-i128:128-f80:128-n8:16:32:64-S128"
target triple = "x86_64-pc-linux-gnu"

%struct.Agobj_s = type { %struct.Agtag_s, ptr }
%struct.Agtag_s = type { i32, i64 }
%struct.Agrec_s = type { ptr, ptr }
%struct.boxf = type { %struct.pointf_s, %struct.pointf_s }
%struct.pointf_s = type { double, double }
%struct.Agnodeinfo_t = type { %struct.Agrec_s, ptr, ptr, %struct.pointf_s, double, double, %struct.boxf, double, double, double, double, double, ptr, ptr, ptr, i8, i8, i8, i8, i32, i32, i32, ptr, double, i8, i8, ptr, ptr, i8, i64, i8, i8, i8, ptr, ptr, %struct.elist, %struct.elist, %struct.elist, %struct.elist, %struct.elist, ptr, i32, ptr, i32, i32, double, %struct.elist, %struct.elist, %struct.elist, %struct.elist, ptr, i32, i32, i32, [1 x double] }
%struct.elist = type { ptr, i64 }

@Ndim = external global i16, align 2

; Function Attrs: nounwind uwtable
define void @jitter_d(ptr noundef %0, i32 noundef %1, i32 noundef %2) #0 {
  %4 = alloca ptr, align 8
  %5 = alloca i32, align 4
  %6 = alloca i32, align 4
  %7 = alloca i32, align 4
  store ptr %0, ptr %4, align 8, !tbaa !29
  store i32 %1, ptr %5, align 4, !tbaa !3
  store i32 %2, ptr %6, align 4, !tbaa !3
  call void @llvm.lifetime.start.p0(i64 4, ptr %7) #11
  %8 = load i32, ptr %6, align 4, !tbaa !3
  store i32 %8, ptr %7, align 4, !tbaa !3
  br label %9

9:                                                ; preds = %27, %3
  %10 = load i32, ptr %7, align 4, !tbaa !3
  %11 = load i16, ptr @Ndim, align 2, !tbaa !74
  %12 = zext i16 %11 to i32
  %13 = icmp slt i32 %10, %12
  br i1 %13, label %14, label %30

14:                                               ; preds = %9
  %15 = load i32, ptr %5, align 4, !tbaa !3
  %16 = sitofp i32 %15 to double
  %17 = call double @drand48() #11
  %18 = fmul double %16, %17
  %19 = load ptr, ptr %4, align 8, !tbaa !29
  %20 = getelementptr inbounds nuw %struct.Agobj_s, ptr %19, i32 0, i32 1
  %21 = load ptr, ptr %20, align 8, !tbaa !47
  %22 = getelementptr inbounds nuw %struct.Agnodeinfo_t, ptr %21, i32 0, i32 22
  %23 = load ptr, ptr %22, align 8, !tbaa !96
  %24 = load i32, ptr %7, align 4, !tbaa !3
  %25 = sext i32 %24 to i64
  %26 = getelementptr inbounds double, ptr %23, i64 %25
  store double %18, ptr %26, align 8, !tbaa !7
  br label %27

27:                                               ; preds = %14
  %28 = load i32, ptr %7, align 4, !tbaa !3
  %29 = add nsw i32 %28, 1
  store i32 %29, ptr %7, align 4, !tbaa !3
  br label %9, !llvm.loop !97

30:                                               ; preds = %9
  call void @llvm.lifetime.end.p0(i64 4, ptr %7) #11
  ret void
}

; Function Attrs: nounwind uwtable
define void @jitter3d(ptr noundef %0, i32 noundef %1) #0 {
  %3 = alloca ptr, align 8
  %4 = alloca i32, align 4
  store ptr %0, ptr %3, align 8, !tbaa !29
  store i32 %1, ptr %4, align 4, !tbaa !3
  %5 = load ptr, ptr %3, align 8, !tbaa !29
  %6 = load i32, ptr %4, align 4, !tbaa !3
  call void @jitter_d(ptr noundef %5, i32 noundef %6, i32 noundef 2)
  ret void
}

; Function Attrs: nounwind uwtable
define void @randompos(ptr noundef %0, i32 noundef %1) #0 {
  %3 = alloca ptr, align 8
  %4 = alloca i32, align 4
  store ptr %0, ptr %3, align 8, !tbaa !29
  store i32 %1, ptr %4, align 4, !tbaa !3
  %5 = load i32, ptr %4, align 4, !tbaa !3
  %6 = sitofp i32 %5 to double
  %7 = call double @drand48() #11
  %8 = fmul double %6, %7
  %9 = load ptr, ptr %3, align 8, !tbaa !29
  %10 = getelementptr inbounds nuw %struct.Agobj_s, ptr %9, i32 0, i32 1
  %11 = load ptr, ptr %10, align 8, !tbaa !47
  %12 = getelementptr inbounds nuw %struct.Agnodeinfo_t, ptr %11, i32 0, i32 22
  %13 = load ptr, ptr %12, align 8, !tbaa !96
  %14 = getelementptr inbounds double, ptr %13, i64 0
  store double %8, ptr %14, align 8, !tbaa !7
  %15 = load i32, ptr %4, align 4, !tbaa !3
  %16 = sitofp i32 %15 to double
  %17 = call double @drand48() #11
  %18 = fmul double %16, %17
  %19 = load ptr, ptr %3, align 8, !tbaa !29
  %20 = getelementptr inbounds nuw %struct.Agobj_s, ptr %19, i32 0, i32 1
  %21 = load ptr, ptr %20, align 8, !tbaa !47
  %22 = getelementptr inbounds nuw %struct.Agnodeinfo_t, ptr %21, i32 0, i32 22
  %23 = load ptr, ptr %22, align 8, !tbaa !96
  %24 = getelementptr inbounds double, ptr %23, i64 1
  store double %18, ptr %24, align 8, !tbaa !7
  %25 = load i16, ptr @Ndim, align 2, !tbaa !74
  %26 = zext i16 %25 to i32
  %27 = icmp sgt i32 %26, 2
  br i1 %27, label %28, label %31

28:                                               ; preds = %2
  %29 = load ptr, ptr %3, align 8, !tbaa !29
  %30 = load i32, ptr %4, align 4, !tbaa !3
  call void @jitter3d(ptr noundef %29, i32 noundef %30)
  br label %31

31:                                               ; preds = %28, %2
  ret void
}