; Function Attrs: nounwind uwtable
define void @randompos(ptr noundef readonly captures(none) %0, i32 noundef %1) local_unnamed_addr #4 {
  %3 = sitofp i32 %1 to double
  %4 = tail call double @drand48() #21
  %5 = fmul double %4, %3
  %6 = getelementptr inbounds nuw i8, ptr %0, i64 16
  %7 = load ptr, ptr %6, align 8, !tbaa !40
  %8 = getelementptr inbounds nuw i8, ptr %7, i64 176
  %9 = load ptr, ptr %8, align 8, !tbaa !86
  store double %5, ptr %9, align 8, !tbaa !10
  %10 = tail call double @drand48() #21
  %11 = fmul double %10, %3
  %12 = load ptr, ptr %6, align 8, !tbaa !40
  %13 = getelementptr inbounds nuw i8, ptr %12, i64 176
  %14 = load ptr, ptr %13, align 8, !tbaa !86
  %15 = getelementptr inbounds nuw i8, ptr %14, i64 8
  store double %11, ptr %15, align 8, !tbaa !10
  %16 = load i16, ptr @Ndim, align 2, !tbaa !71
  %17 = icmp ugt i16 %16, 2
  br i1 %17, label %.lr.ph.i.i, label %jitter3d.exit

.lr.ph.i.i:                                       ; preds = %2, %.lr.ph.i.i
  %indvars.iv.i.i = phi i64 [ %indvars.iv.next.i.i, %.lr.ph.i.i ], [ 2, %2 ]
  %18 = tail call double @drand48() #21
  %19 = fmul double %18, %3
  %20 = load ptr, ptr %6, align 8, !tbaa !40
  %21 = getelementptr inbounds nuw i8, ptr %20, i64 176
  %22 = load ptr, ptr %21, align 8, !tbaa !86
  %23 = getelementptr inbounds nuw double, ptr %22, i64 %indvars.iv.i.i
  store double %19, ptr %23, align 8, !tbaa !10
  %indvars.iv.next.i.i = add nuw nsw i64 %indvars.iv.i.i, 1
  %24 = load i16, ptr @Ndim, align 2, !tbaa !71
  %25 = zext i16 %24 to i64
  %26 = icmp samesign ult i64 %indvars.iv.next.i.i, %25
  br i1 %26, label %.lr.ph.i.i, label %jitter3d.exit, !llvm.loop !87

jitter3d.exit:                                    ; preds = %.lr.ph.i.i, %2
  ret void
}